target datalayout = "e-m:e-p270:32:32-p271:32:32-p272:64:64-i64:64-i128:128-f80:128-n8:16:32:64-S128"
target triple = "x86_64-pc-linux-gnu"

%struct.nghttp2_map = type { ptr, ptr, i64, i32, i32 }

; Function Attrs: nounwind uwtable
define dso_local void @nghttp2_map_free(ptr noundef %0) #0 {
  %2 = alloca ptr, align 8
  store ptr %0, ptr %2, align 8
  %3 = load ptr, ptr %2, align 8
  %4 = icmp ne ptr %3, null
  br i1 %4, label %6, label %5

5:                                                ; preds = %1
  br label %13

6:                                                ; preds = %1
  %7 = load ptr, ptr %2, align 8
  %8 = getelementptr inbounds %struct.nghttp2_map, ptr %7, i32 0, i32 1
  %9 = load ptr, ptr %8, align 8
  %10 = load ptr, ptr %2, align 8
  %11 = getelementptr inbounds %struct.nghttp2_map, ptr %10, i32 0, i32 0
  %12 = load ptr, ptr %11, align 8
  call void @nghttp2_mem_free(ptr noundef %9, ptr noundef %12)
  br label %13

13:                                               ; preds = %6, %5
  ret void
}